; Function Attrs: mustprogress uwtable
define dso_local void @_ZN3net14QuicSpdyStream11SetPriorityEh(ptr nocapture noundef nonnull align 8 dereferenceable(664) %this, i8 noundef zeroext %priority) local_unnamed_addr #0 align 2 personality ptr @__gxx_personality_v0 {
if.end:
  %spdy_session_ = getelementptr inbounds i8, ptr %this, i64 384
  %0 = load ptr, ptr %spdy_session_, align 8
  %id_.i = getelementptr inbounds i8, ptr %this, i64 216
  %1 = load i32, ptr %id_.i, align 8
  tail call void @_ZN3net15QuicSpdySession20UpdateStreamPriorityEjh(ptr noundef nonnull align 8 dereferenceable(2057) %0, i32 noundef %1, i8 noundef zeroext %priority)
  %priority_ = getelementptr inbounds i8, ptr %this, i64 401
  store i8 %priority, ptr %priority_, align 1
  ret void
}